; Function Attrs: mustprogress uwtable
define void @_ZNK6icu_7520DecimalFormatSymbols9getLocaleE18ULocDataLocaleTypeR10UErrorCode(ptr noalias sret(%"class.icu_75::Locale") align 8 %agg.result, ptr noundef nonnull align 8 dereferenceable(2883) %this, i32 noundef %type, ptr noundef nonnull align 4 dereferenceable(4) %status) local_unnamed_addr #1 align 2 {
entry:
  %locBased = alloca %"class.icu_75::LocaleBased", align 8
  %validLocale = getelementptr inbounds i8, ptr %this, i64 2317
  %actualLocale = getelementptr inbounds i8, ptr %this, i64 2160
  store ptr %validLocale, ptr %locBased, align 8
  %actual.i = getelementptr inbounds i8, ptr %locBased, i64 8
  store ptr %actualLocale, ptr %actual.i, align 8
  call void @_ZNK6icu_7511LocaleBased9getLocaleE18ULocDataLocaleTypeR10UErrorCode(ptr sret(%"class.icu_75::Locale") align 8 %agg.result, ptr noundef nonnull align 8 dereferenceable(16) %locBased, i32 noundef %type, ptr noundef nonnull align 4 dereferenceable(4) %status)
  ret void
}